; ModuleID = '22/903.c'
source_filename = "22/903.c"
target datalayout = "e-m:e-p270:32:32-p271:32:32-p272:64:64-i64:64-f80:128-n8:16:32:64-S128"
target triple = "x86_64-pc-linux-gnu"

@.str = private unnamed_addr constant [3 x i8] c"%d\00", align 1
@.str.1 = private unnamed_addr constant [4 x i8] c",%d\00", align 1
@.str.2 = private unnamed_addr constant [3 x i8] c"No\00", align 1
@.str.3 = private unnamed_addr constant [4 x i8] c"%d\0A\00", align 1

; Function Attrs: noinline nounwind uwtable
define dso_local i32 @main() #0 {
  %1 = alloca i32, align 4
  %2 = alloca i32, align 4
  %3 = alloca i32, align 4
  %4 = alloca i32, align 4
  %5 = alloca i32, align 4
  store i32 0, i32* %1, align 4
  store i32 0, i32* %5, align 4
  %6 = call i32 (i8*, ...) @__isoc99_scanf(i8* getelementptr inbounds ([3 x i8], [3 x i8]* @.str, i64 0, i64 0), i32* %2)
  %7 = load i32, i32* %2, align 4
  store i32 %7, i32* %4, align 4
  store i32 0, i32* %3, align 4
  br label %8

8:                                                ; preds = %30, %0
  %9 = load i32, i32* %3, align 4
  %10 = icmp slt i32 %9, 300
  br i1 %10, label %11, label %33

11:                                               ; preds = %8
  %12 = call i32 (i8*, ...) @__isoc99_scanf(i8* getelementptr inbounds ([4 x i8], [4 x i8]* @.str.1, i64 0, i64 0), i32* %2)
  %13 = load i32, i32* %2, align 4
  %14 = load i32, i32* %4, align 4
  %15 = icmp sgt i32 %13, %14
  br i1 %15, label %16, label %19

16:                                               ; preds = %11
  %17 = load i32, i32* %4, align 4
  store i32 %17, i32* %5, align 4
  %18 = load i32, i32* %2, align 4
  store i32 %18, i32* %4, align 4
  br label %30

19:                                               ; preds = %11
  %20 = load i32, i32* %2, align 4
  %21 = load i32, i32* %4, align 4
  %22 = icmp slt i32 %20, %21
  br i1 %22, label %23, label %29

23:                                               ; preds = %19
  %24 = load i32, i32* %2, align 4
  %25 = load i32, i32* %5, align 4
  %26 = icmp sgt i32 %24, %25
  br i1 %26, label %27, label %29

27:                                               ; preds = %23
  %28 = load i32, i32* %2, align 4
  store i32 %28, i32* %5, align 4
  br label %29

29:                                               ; preds = %27, %23, %19
  br label %30

30:                                               ; preds = %29, %16
  %31 = load i32, i32* %3, align 4
  %32 = add nsw i32 %31, 1
  store i32 %32, i32* %3, align 4
  br label %8

33:                                               ; preds = %8
  %34 = load i32, i32* %5, align 4
  %35 = icmp eq i32 %34, 0
  br i1 %35, label %36, label %38

36:                                               ; preds = %33
  %37 = call i32 (i8*, ...) @printf(i8* getelementptr inbounds ([3 x i8], [3 x i8]* @.str.2, i64 0, i64 0))
  br label %41

38:                                               ; preds = %33
  %39 = load i32, i32* %5, align 4
  %40 = call i32 (i8*, ...) @printf(i8* getelementptr inbounds ([4 x i8], [4 x i8]* @.str.3, i64 0, i64 0), i32 %39)
  br label %41

41:                                               ; preds = %38, %36
  ret i32 0
}

declare dso_local i32 @__isoc99_scanf(i8*, ...) #1

declare dso_local i32 @printf(i8*, ...) #1


!llvm.module.flags = !{!0}
!llvm.ident = !{!1}

!0 = !{i32 1, !"wchar_size", i32 4}
!1 = !{!"clang version 10.0.0-4ubuntu1 "}
